     1                                  %include "../lib64.asm"
     2                              <1>          section .text     ; сегмент кода
     3                              <1> IntToStr64: 
     4 00000000 57                  <1>          push   rdi
     5 00000001 53                  <1>          push   rbx
     6 00000002 52                  <1>          push   rdx
     7 00000003 51                  <1>          push   rcx
     8 00000004 56                  <1> 		 push   rsi
     9 00000005 C60600              <1> 		 mov    byte[rsi],0 ; на место знака
    10 00000008 83F800              <1>          cmp    eax,0
    11 0000000B 7D05                <1>          jge    .l1
    12 0000000D F7D8                <1>          neg    eax
    13 0000000F C6062D              <1>          mov    byte[rsi],'-'
    14 00000012 C646060A            <1> .l1      mov    byte[rsi+6],10
    15 00000016 BF05000000          <1>          mov    rdi,5
    16 0000001B 66BB0A00            <1>          mov    bx,10
    17 0000001F 6699                <1> .again:  cwd           ; расширили слово до двойного
    18 00000021 66F7F3              <1>          div    bx     ; делим результат на 10
    19 00000024 80C230              <1>          add    dl,30h ; получаем из остатка код цифры
    20 00000027 88143E              <1>          mov    [rsi+rdi],dl ; пишем символ в строку
    21 0000002A 48FFCF              <1>          dec    rdi    ; переводим указатель на  
    22                              <1>                        ; предыдущую позицию
    23 0000002D 6683F800            <1>          cmp    ax, 0  ; преобразовали все число?
    24 00000031 75EC                <1>          jne    .again
    25 00000033 B906000000          <1>          mov    rcx, 6
    26 00000038 4829F9              <1>          sub    rcx, rdi ; длина результата+знак
    27 0000003B 4889C8              <1> 		 mov    rax,rcx
    28 0000003E 48FFC0              <1> 		 inc    rax    ; длина результата+OA
    29 00000041 48FFC6              <1>          inc    rsi    ; пропускаем знак
    30 00000044 56                  <1> 		 push   rsi
    31 00000045 488D343E            <1>          lea    rsi,[rsi+rdi] ; начало результата
    32 00000049 5F                  <1> 		 pop    rdi
    33 0000004A F3A4                <1>          rep movsb
    34 0000004C 5E                  <1>          pop    rsi  
    35 0000004D 59                  <1>          pop    rcx
    36 0000004E 5A                  <1>          pop    rdx
    37 0000004F 5B                  <1>          pop    rbx
    38 00000050 5F                  <1>          pop    rdi
    39 00000051 C3                  <1>          ret
    40                              <1> StrToInt64:
    41 00000052 57                  <1>          push   rdi
    42 00000053 B739                <1>          mov    bh, '9'
    43 00000055 B330                <1>          mov    bl, '0'
    44 00000057 56                  <1>          push   rsi     ; сохран€ем адрес исходной строки
    45 00000058 803E2D              <1>          cmp    byte[rsi], '-'
    46 0000005B 7503                <1>          jne    .prod
    47 0000005D 48FFC6              <1>          inc    rsi     ; пропускаем знак
    48 00000060 FC                  <1> .prod    cld
    49 00000061 6631FF              <1>          xor    di, di  ; обнул€ем будущее число
    50 00000064 AC                  <1> .cycle:  lodsb          ; загружаем символ (цифру)
    51 00000065 3C0A                <1>          cmp    al, 10  ; если 10, то на конец
    52 00000067 741F                <1>          je     .Return
    53 00000069 38D8                <1>          cmp    al, bl  ; сравниваем с кодом нул€
    54 0000006B 722F                <1>          jb     .Error  ; "ниже" Ц ќшибка
    55 0000006D 38F8                <1>          cmp    al, bh  ; сравниваем с кодом дев€ти 
    56 0000006F 772B                <1>          ja     .Error  ; "выше" Ц ќшибка
    57 00000071 2C30                <1>          sub    al, 30h ; получаем цифру из символа
    58 00000073 6698                <1>          cbw            ; расшир€ем до слова
    59 00000075 6650                <1>          push   ax      ; сохран€ем в стеке
    60 00000077 66B80A00            <1>          mov    ax, 10  ; заносим 10 в AX
    61 0000007B 66F7E7              <1>          mul    di      ; умножаем, результат в DX:AX
    62 0000007E 665F                <1>          pop    di      ; в DI Ц очередна€ цифра
    63 00000080 6601F8              <1>          add    ax, di
    64 00000083 6689C7              <1>          mov    di, ax  ; в DI Ц накопленное число        
    65 00000086 EBDC                <1>          jmp    .cycle
    66 00000088 5E                  <1> .Return: pop    rsi
    67 00000089 BB00000000          <1>          mov    rbx, 0
    68 0000008E 803E2D              <1>          cmp    byte[rsi], '-'
    69 00000091 7503                <1>          jne    .J
    70 00000093 66F7DF              <1>          neg    di
    71 00000096 6689F8              <1> .J       mov    ax, di
    72 00000099 98                  <1>          cwde
    73 0000009A EB0B                <1>          jmp    .R
    74 0000009C 5E                  <1> .Error:  pop    rsi
    75 0000009D B800000000          <1>          mov    rax, 0
    76 000000A2 BB01000000          <1>          mov    rbx, 1
    77 000000A7 5F                  <1> .R       pop    rdi
    78 000000A8 C3                  <1>          ret
     2                                  
     3                                  section .data
     4 00000000 7468652064656E6F6D-         error db "the denominator is 0"
     4 00000009 696E61746F72206973-
     4 00000012 2030               
     5                                      len_error equ $-error
     6                                      
     7                                  section .bss
     8 00000000 ????????                    a resd 1
     9 00000004 ????????                    b resd 1
    10 00000008 ????????                    c resd 1
    11 0000000C ????????                    y resd 1
    12 00000010 ????????                    input resd 1
    13                                      len_input equ $-input
    14 00000014 ????????                    output resd 1
    15                                      len_output equ $-output
    16                                  
    17                                  section .text
    18                                      global _start
    19                                          _start:
    20                                          
    21                                              ; read a
    22 000000A9 B800000000                          mov rax, 0          ; system function 0 (read)
    23 000000AE BF00000000                          mov rdi, 0          ; file descriptor stdin=0
    24 000000B3 48BE-                               mov rsi, input      ; input line address
    24 000000B5 [1000000000000000] 
    25 000000BD BA04000000                          mov rdx, len_input  ; line length
    26 000000C2 0F05                                syscall
    27                                              
    28                                              ; str to int
    29 000000C4 48BE-                               mov RSI, input
    29 000000C6 [1000000000000000] 
    30 000000CE E87FFFFFFF                          call StrToInt64
    31 000000D3 4883FB00                            cmp RBX, 0
    32 000000D7 75C3                                jne StrToInt64.Error
    33                                              
    34 000000D9 48890425[00000000]                  mov [a], RAX
    35                                              
    36 000000E1 BE00000000                          mov rsi, 0
    37                                              ; read b
    38 000000E6 B800000000                          mov rax, 0
    39 000000EB BF00000000                          mov rdi, 0
    40 000000F0 48BE-                               mov rsi, input
    40 000000F2 [1000000000000000] 
    41 000000FA BA04000000                          mov rdx, len_input
    42 000000FF 0F05                                syscall
    43                                              
    44                                              ; str to int
    45 00000101 48BE-                               mov RSI, input
    45 00000103 [1000000000000000] 
    46 0000010B E842FFFFFF                          call StrToInt64
    47 00000110 4883FB00                            cmp RBX, 0
    48 00000114 7586                                jne StrToInt64.Error
    49                                              
    50 00000116 48890425[04000000]                  mov [b], RAX
    51                                              
    52                                              ; read c
    53 0000011E B800000000                          mov rax, 0
    54 00000123 BF00000000                          mov rdi, 0
    55 00000128 48BE-                               mov rsi, input
    55 0000012A [1000000000000000] 
    56 00000132 BA04000000                          mov rdx, len_input
    57 00000137 0F05                                syscall
    58                                              
    59                                              ; str to int
    60 00000139 48BE-                               mov RSI, input
    60 0000013B [1000000000000000] 
    61 00000143 E80AFFFFFF                          call StrToInt64
    62 00000148 4883FB00                            cmp RBX, 0
    63 0000014C 0F854AFFFFFF                        jne StrToInt64.Error
    64                                              
    65 00000152 48890425[08000000]                  mov [c], RAX
    66                                              
    67                                              ; read y
    68 0000015A B800000000                          mov rax, 0
    69 0000015F BF00000000                          mov rdi, 0
    70 00000164 48BE-                               mov rsi, input
    70 00000166 [1000000000000000] 
    71 0000016E BA04000000                          mov rdx, len_input
    72 00000173 0F05                                syscall
    73                                              
    74                                              ; str to int
    75 00000175 48BE-                               mov RSI, input
    75 00000177 [1000000000000000] 
    76 0000017F E8CEFEFFFF                          call StrToInt64
    77 00000184 4883FB00                            cmp RBX, 0
    78 00000188 0F850EFFFFFF                        jne StrToInt64.Error
    79                                              
    80 0000018E 48890425[0C000000]                  mov [y], RAX
    81                                              
    82 00000196 8B0425[00000000]                    mov eax, [a]
    83 0000019D 8B1C25[0C000000]                    mov ebx, [y]
    84                                              
    85                                              check:
    86 000001A4 39D8                                    cmp eax, ebx
    87 000001A6 7F27                                    jg continue
    88 000001A8 7C25                                    jl continue
    89                                                  
    90                                                  ; error message
    91 000001AA B801000000                              mov rax, 1
    92 000001AF BF01000000                              mov rdi, 1
    93 000001B4 48BE-                                   mov rsi, error
    93 000001B6 [0000000000000000] 
    94 000001BE BA14000000                              mov rdx, len_error
    95 000001C3 0F05                                    syscall
    96                                                  
    97                                                  ; exit
    98 000001C5 B83C000000                              mov eax, 60
    99 000001CA 4831FF                                  xor rdi, rdi
   100 000001CD 0F05                                    syscall
   101                                  
   102                                              continue:
   103                                                  ; calculating
   104 000001CF 8B0425[04000000]                        mov eax, [b]
   105 000001D6 F7E0                                    mul eax             ; b^2
   106 000001D8 89C3                                    mov ebx, eax
   107 000001DA 8B0425[00000000]                        mov eax, [a]
   108 000001E1 8B0C25[0C000000]                        mov ecx, [y]
   109 000001E8 29C1                                    sub ecx, eax        ; y - a
   110 000001EA 29D8                                    sub eax, ebx        ; a - b^2
   111 000001EC 99                                      cdq
   112 000001ED F7F9                                    idiv ecx            ; (a - b^2) / (y - a)
   113 000001EF 89C3                                    mov ebx, eax
   114 000001F1 8B0425[00000000]                        mov eax, [a]
   115 000001F8 F7E0                                    mul eax             ; a^2
   116 000001FA 01C3                                    add ebx, eax        ; (a - b^2) / (y - a) + a^2
   117 000001FC 8B0425[08000000]                        mov eax, [c]
   118 00000203 29C3                                    sub ebx, eax        ; (a - b^2) / (y - a) + a^2 - c
   119                                  
   120 00000205 891C25[00000000]                        mov [a], ebx
   121                                                  
   122                                                  ; int to str
   123 0000020C BE[14000000]                            mov esi, output
   124 00000211 668B0425[00000000]                      mov ax, [a]
   125 00000219 98                                      cwde
   126 0000021A E8E1FDFFFF                              call IntToStr64
   127                                                  
   128                                                  ; write
   129 0000021F B801000000                              mov rax, 1         ; system function 1 (write)
   130 00000224 BF01000000                              mov rdi, 1         ; file descriptor stdout=1
   131 00000229 48BE-                                   mov rsi, output    ; output line address
   131 0000022B [1400000000000000] 
   132 00000233 BA04000000                              mov rdx, len_output ; line length
   133 00000238 0F05                                    syscall
   134                                                  
   135                                              
   136 0000023A B83C000000                              mov eax, 60        ; system function 60 (exit)
   137 0000023F 4831FF                                  xor rdi, rdi       ; return code 0
   138 00000242 0F05                                    syscall
